target datalayout = "e-m:e-p270:32:32-p271:32:32-p272:64:64-i64:64-i128:128-f80:128-n8:16:32:64-S128"
target triple = "x86_64-pc-linux-gnu"

%struct._GdkRGBA = type { double, double, double, double }
%struct.darktable_t = type { %struct.dt_codepath_t, i32, i32, ptr, ptr, ptr, ptr, ptr, ptr, ptr, ptr, ptr, ptr, ptr, ptr, ptr, ptr, ptr, ptr, ptr, ptr, ptr, ptr, ptr, ptr, ptr, ptr, ptr, ptr, ptr, [64 x %struct.dt_pthread_mutex_t], %struct.dt_pthread_mutex_t, %struct.dt_pthread_mutex_t, %struct.dt_pthread_mutex_t, %struct.dt_pthread_mutex_t, %struct.dt_pthread_mutex_t, ptr, ptr, ptr, ptr, ptr, ptr, ptr, ptr, ptr, ptr, ptr, ptr, ptr, %struct.dt_lua_state_t, ptr, double, ptr, i32, [47 x i32], i32, i32, ptr, ptr, %struct.dt_sys_resources_t, %struct.dt_backthumb_t, %struct.dt_gimp_t }
%struct.dt_codepath_t = type { i8, [3 x i8] }
%struct.dt_pthread_mutex_t = type { %union.pthread_mutex_t }
%union.pthread_mutex_t = type { %struct.__pthread_mutex_s }
%struct.__pthread_mutex_s = type { i32, i32, i32, i32, i32, i16, i16, %struct.__pthread_internal_list }
%struct.__pthread_internal_list = type { ptr, ptr }
%struct.dt_lua_state_t = type { i32 }
%struct.dt_sys_resources_t = type { i64, i64, ptr, ptr, i32 }
%struct.dt_backthumb_t = type { double, double, i32, i32, i32, i32 }
%struct.dt_gimp_t = type { i32, ptr, ptr, i32, i32 }
%struct.dt_iop_module_t = type { i32, ptr, ptr, ptr, ptr, ptr, ptr, ptr, ptr, ptr, ptr, ptr, ptr, ptr, ptr, ptr, ptr, ptr, ptr, ptr, ptr, ptr, ptr, ptr, ptr, ptr, ptr, ptr, ptr, ptr, ptr, ptr, ptr, ptr, ptr, ptr, ptr, ptr, ptr, ptr, ptr, ptr, ptr, ptr, ptr, ptr, ptr, ptr, ptr, ptr, ptr, ptr, ptr, ptr, ptr, ptr, ptr, [20 x i8], i32, i32, i32, i32, i32, i32, i32, [8 x i8], [4 x float], [4 x float], [4 x float], [4 x float], [4 x float], [4 x float], ptr, %struct.dt_dev_histogram_stats_t, [4 x i32], i32, i32, ptr, i32, i32, ptr, ptr, i32, ptr, %struct.dt_pthread_mutex_t, ptr, ptr, ptr, ptr, %struct.anon, ptr, ptr, ptr, ptr, ptr, ptr, ptr, i32, ptr, ptr, ptr, ptr, ptr, ptr, ptr, i32, ptr, i32, [128 x i8], i32, ptr, ptr, i32, [12 x i8] }
%struct.dt_dev_histogram_stats_t = type { i32, i64, i32, i32 }
%struct.anon = type { %struct.anon.0, %struct.anon.1 }
%struct.anon.0 = type { ptr, ptr }
%struct.anon.1 = type { ptr, i32 }
%struct.dt_iop_gui_blend_data_t = type { i32, i32, i32, i32, i32, i32, i32, ptr, ptr, ptr, ptr, ptr, ptr, ptr, ptr, ptr, ptr, ptr, ptr, ptr, [2 x %struct.dt_iop_gui_blendif_filter_t], ptr, ptr, ptr, ptr, ptr, ptr, ptr, ptr, ptr, ptr, ptr, ptr, i32, i32, ptr, i32, [8 x [2 x i32]], i32, i32, ptr, i32, ptr, ptr, ptr, [5 x ptr], [5 x i32], ptr, ptr, ptr, i32, ptr, ptr, i32, %struct.dt_pthread_mutex_t }
%struct.dt_iop_gui_blendif_filter_t = type { ptr, ptr, [4 x ptr], ptr, ptr, ptr }
%struct.dt_gui_gtk_t = type { ptr, %struct.dt_gui_widgets_t, %struct.dt_gui_scrollbars_t, i32, ptr, i32, [39 x %struct._GdkRGBA], i32, i32, i32, i32, i32, double, double, double, double, ptr, double, double, double, double, i32, i32, [4096 x i8], i32, i32, i32, %struct.dt_pthread_mutex_t }
%struct.dt_gui_widgets_t = type { ptr, ptr, ptr, ptr, i32, i32, i32 }
%struct.dt_gui_scrollbars_t = type { ptr, ptr, i32 }
%struct.dt_develop_blend_params_t = type { i32, i32, i32, float, float, i32, i32, i32, float, i32, float, float, float, float, i32, [2 x i32], [64 x float], [16 x float], [20 x i8], i32, i32, i32 }
%struct.dt_develop_t = type { i32, i32, i32, ptr, double, double, i32, i32, i32, i32, i32, double, i32, i32, i32, ptr, ptr, [8 x i8], %struct.dt_image_t, i32, i32, %struct.dt_pthread_mutex_t, i32, ptr, i32, ptr, i32, ptr, ptr, i32, ptr, ptr, ptr, ptr, i32, i32, ptr, ptr, ptr, ptr, i32, i32, i32, float, float, ptr, i32, %struct.anon.8, %struct.dt_dev_chroma_t, %struct.anon.11, %struct.anon.12, %struct.anon.13, %struct.anon.14, %struct.anon.15, %struct.anon.16, ptr, ptr, %struct.dt_dev_viewport_t, %struct.dt_dev_viewport_t, i32, i32, i32, ptr, [8 x i8] }
%struct.dt_image_t = type { i32, i32, float, float, float, float, float, float, float, [64 x i8], [64 x i8], [128 x i8], [64 x i8], [64 x i8], [64 x i8], [64 x i8], i64, i32, %union.dt_image_correction_data_t, [64 x i8], [64 x i8], [64 x i8], [128 x i8], i32, [256 x i8], i32, i32, i32, i32, i32, i32, i32, i32, i32, i32, float, i32, i32, i32, i32, i32, i32, i64, i64, i64, i64, i32, [12 x i8], %struct.dt_iop_buffer_dsc_t, [9 x float], ptr, i32, i32, %struct.dt_image_raw_parameters_t, %struct.dt_image_geoloc_t, %struct._color_harmony_t, i16, [4 x i16], i32, i32, float, float, [4 x float], [4 x [3 x float]], [4 x float], ptr, ptr, i32, i32, [8 x i8] }
%union.dt_image_correction_data_t = type { %struct.anon.3 }
%struct.anon.3 = type { i32, float, [11 x float], [11 x float], [11 x float], [11 x float], [11 x float] }
%struct.dt_iop_buffer_dsc_t = type { i32, i32, i32, [6 x [6 x i8]], %struct.anon.6, [12 x i8], %struct.anon.7, [4 x float], i32, [12 x i8] }
%struct.anon.6 = type { i16, i16 }
%struct.anon.7 = type { i32, [12 x i8], [4 x float] }
%struct.dt_image_raw_parameters_t = type { i32 }
%struct.dt_image_geoloc_t = type { double, double, double }
%struct._color_harmony_t = type { i32, i32, i32 }
%struct.anon.8 = type { %struct.dt_dev_proxy_exposure_t, ptr, %struct.anon.9, %struct.anon.10 }
%struct.dt_dev_proxy_exposure_t = type { ptr, ptr, ptr, ptr }
%struct.anon.9 = type { ptr, ptr, ptr, ptr, ptr, ptr, ptr, ptr, ptr }
%struct.anon.10 = type { ptr, ptr, ptr, ptr, ptr }
%struct.dt_dev_chroma_t = type { ptr, ptr, [4 x double], [4 x double], [4 x double], i32 }
%struct.anon.11 = type { ptr, ptr, ptr }
%struct.anon.12 = type { ptr, ptr, i32, i32, float, float, i32 }
%struct.anon.13 = type { ptr, ptr, i32, i32, i32, float }
%struct.anon.14 = type { ptr }
%struct.anon.15 = type { ptr, i32 }
%struct.anon.16 = type { ptr, ptr, ptr }
%struct.dt_dev_viewport_t = type { ptr, i32, i32, i32, i32, i32, double, double, double, i32, i32, i32, float, float, float, ptr }
%struct.dt_masks_form_t = type { ptr, i32, ptr, [2 x float], [128 x i8], i32, i32 }
%struct.dt_masks_form_gui_t = type { ptr, ptr, ptr, i32, float, float, float, float, float, float, float, float, i32, i32, i32, i32, i32, i32, i32, i32, i32, i32, i32, i32, i32, i32, i32, i32, i32, i32, i32, i32, i32, i32, float, float, i32, i32, i32, i32, i32, i32, ptr, ptr, i32, i32, i64 }

@darktable = external global %struct.darktable_t, align 8
@.str.135 = private unnamed_addr constant [14 x i8] c"%d shape used\00", align 1
@.str.136 = private unnamed_addr constant [15 x i8] c"%d shapes used\00", align 1
@.str.137 = private unnamed_addr constant [13 x i8] c"no mask used\00", align 1

; Function Attrs: nounwind uwtable
define void @dt_iop_gui_update_masks(ptr noundef %0) #0 {
  %2 = alloca ptr, align 8
  %3 = alloca ptr, align 8
  %4 = alloca ptr, align 8
  %5 = alloca i32, align 4
  %6 = alloca ptr, align 8
  %7 = alloca [512 x i8], align 16
  %8 = alloca i32, align 4
  %9 = alloca i32, align 4
  store ptr %0, ptr %2, align 8, !tbaa !6
  call void @llvm.lifetime.start.p0(i64 8, ptr %3) #11
  %10 = load ptr, ptr %2, align 8, !tbaa !6
  %11 = getelementptr inbounds nuw %struct.dt_iop_module_t, ptr %10, i32 0, i32 88
  %12 = load ptr, ptr %11, align 8, !tbaa !15
  store ptr %12, ptr %3, align 8, !tbaa !31
  call void @llvm.lifetime.start.p0(i64 8, ptr %4) #11
  %13 = load ptr, ptr %2, align 8, !tbaa !6
  %14 = getelementptr inbounds nuw %struct.dt_iop_module_t, ptr %13, i32 0, i32 86
  %15 = load ptr, ptr %14, align 8, !tbaa !77
  store ptr %15, ptr %4, align 8, !tbaa !78
  %16 = load ptr, ptr %3, align 8, !tbaa !31
  %17 = icmp ne ptr %16, null
  br i1 %17, label %18, label %28

18:                                               ; preds = %1
  %19 = load ptr, ptr %3, align 8, !tbaa !31
  %20 = getelementptr inbounds nuw %struct.dt_iop_gui_blend_data_t, ptr %19, i32 0, i32 3
  %21 = load i32, ptr %20, align 4, !tbaa !190
  %22 = icmp ne i32 %21, 0
  br i1 %22, label %23, label %28

23:                                               ; preds = %18
  %24 = load ptr, ptr %3, align 8, !tbaa !31
  %25 = getelementptr inbounds nuw %struct.dt_iop_gui_blend_data_t, ptr %24, i32 0, i32 4
  %26 = load i32, ptr %25, align 8, !tbaa !191
  %27 = icmp ne i32 %26, 0
  br i1 %27, label %29, label %28

28:                                               ; preds = %23, %18, %1
  store i32 1, ptr %5, align 4
  br label %189

29:                                               ; preds = %23
  %30 = load ptr, ptr getelementptr inbounds nuw (%struct.darktable_t, ptr @darktable, i32 0, i32 14), align 8, !tbaa !39
  %31 = getelementptr inbounds nuw %struct.dt_gui_gtk_t, ptr %30, i32 0, i32 5
  %32 = load i32, ptr %31, align 8, !tbaa !72
  %33 = add nsw i32 %32, 1
  store i32 %33, ptr %31, align 8, !tbaa !72
  call void @llvm.lifetime.start.p0(i64 8, ptr %6) #11
  %34 = load ptr, ptr getelementptr inbounds nuw (%struct.darktable_t, ptr @darktable, i32 0, i32 9), align 8, !tbaa !132
  %35 = load ptr, ptr %2, align 8, !tbaa !6
  %36 = getelementptr inbounds nuw %struct.dt_iop_module_t, ptr %35, i32 0, i32 86
  %37 = load ptr, ptr %36, align 8, !tbaa !77
  %38 = getelementptr inbounds nuw %struct.dt_develop_blend_params_t, ptr %37, i32 0, i32 6
  %39 = load i32, ptr %38, align 4, !tbaa !192
  %40 = call ptr @dt_masks_get_from_id(ptr noundef %34, i32 noundef %39)
  store ptr %40, ptr %6, align 8, !tbaa !193
  %41 = load ptr, ptr %3, align 8, !tbaa !31
  %42 = getelementptr inbounds nuw %struct.dt_iop_gui_blend_data_t, ptr %41, i32 0, i32 44
  %43 = load ptr, ptr %42, align 8, !tbaa !194
  call void @dt_bauhaus_combobox_clear(ptr noundef %43)
  %44 = load ptr, ptr %6, align 8, !tbaa !193
  %45 = icmp ne ptr %44, null
  br i1 %45, label %46, label %72

46:                                               ; preds = %29
  %47 = load ptr, ptr %6, align 8, !tbaa !193
  %48 = getelementptr inbounds nuw %struct.dt_masks_form_t, ptr %47, i32 0, i32 1
  %49 = load i32, ptr %48, align 8, !tbaa !195
  %50 = and i32 %49, 4
  %51 = icmp ne i32 %50, 0
  br i1 %51, label %52, label %72

52:                                               ; preds = %46
  %53 = load ptr, ptr %6, align 8, !tbaa !193
  %54 = getelementptr inbounds nuw %struct.dt_masks_form_t, ptr %53, i32 0, i32 0
  %55 = load ptr, ptr %54, align 8, !tbaa !198
  %56 = icmp ne ptr %55, null
  br i1 %56, label %57, label %72

57:                                               ; preds = %52
  call void @llvm.lifetime.start.p0(i64 512, ptr %7) #11
  call void @llvm.lifetime.start.p0(i64 4, ptr %8) #11
  %58 = load ptr, ptr %6, align 8, !tbaa !193
  %59 = getelementptr inbounds nuw %struct.dt_masks_form_t, ptr %58, i32 0, i32 0
  %60 = load ptr, ptr %59, align 8, !tbaa !198
  %61 = call i32 @g_list_length(ptr noundef %60)
  store i32 %61, ptr %8, align 4, !tbaa !80
  %62 = getelementptr inbounds [512 x i8], ptr %7, i64 0, i64 0
  %63 = load i32, ptr %8, align 4, !tbaa !80
  %64 = zext i32 %63 to i64
  %65 = call ptr @dcngettext(ptr noundef null, ptr noundef @.str.135, ptr noundef @.str.136, i64 noundef %64, i32 noundef 5) #11
  %66 = load i32, ptr %8, align 4, !tbaa !80
  %67 = call i32 (ptr, i64, ptr, ...) @snprintf(ptr noundef %62, i64 noundef 512, ptr noundef %65, i32 noundef %66) #11
  %68 = load ptr, ptr %3, align 8, !tbaa !31
  %69 = getelementptr inbounds nuw %struct.dt_iop_gui_blend_data_t, ptr %68, i32 0, i32 44
  %70 = load ptr, ptr %69, align 8, !tbaa !194
  %71 = getelementptr inbounds [512 x i8], ptr %7, i64 0, i64 0
  call void @dt_bauhaus_combobox_add(ptr noundef %70, ptr noundef %71)
  call void @llvm.lifetime.end.p0(i64 4, ptr %8) #11
  call void @llvm.lifetime.end.p0(i64 512, ptr %7) #11
  br label %80

72:                                               ; preds = %52, %46, %29
  %73 = load ptr, ptr %3, align 8, !tbaa !31
  %74 = getelementptr inbounds nuw %struct.dt_iop_gui_blend_data_t, ptr %73, i32 0, i32 44
  %75 = load ptr, ptr %74, align 8, !tbaa !194
  %76 = call ptr @dcgettext(ptr noundef null, ptr noundef @.str.137, i32 noundef 5) #11
  call void @dt_bauhaus_combobox_add(ptr noundef %75, ptr noundef %76)
  %77 = load ptr, ptr %3, align 8, !tbaa !31
  %78 = getelementptr inbounds nuw %struct.dt_iop_gui_blend_data_t, ptr %77, i32 0, i32 50
  store i32 0, ptr %78, align 8, !tbaa !199
  %79 = load ptr, ptr %2, align 8, !tbaa !6
  call void @dt_masks_set_edit_mode(ptr noundef %79, i32 noundef 0)
  br label %80

80:                                               ; preds = %72, %57
  %81 = load ptr, ptr %3, align 8, !tbaa !31
  %82 = getelementptr inbounds nuw %struct.dt_iop_gui_blend_data_t, ptr %81, i32 0, i32 44
  %83 = load ptr, ptr %82, align 8, !tbaa !194
  call void @dt_bauhaus_combobox_set(ptr noundef %83, i32 noundef 0)
  %84 = load ptr, ptr %3, align 8, !tbaa !31
  %85 = getelementptr inbounds nuw %struct.dt_iop_gui_blend_data_t, ptr %84, i32 0, i32 3
  %86 = load i32, ptr %85, align 4, !tbaa !190
  %87 = icmp ne i32 %86, 0
  br i1 %87, label %88, label %108

88:                                               ; preds = %80
  %89 = load ptr, ptr %3, align 8, !tbaa !31
  %90 = getelementptr inbounds nuw %struct.dt_iop_gui_blend_data_t, ptr %89, i32 0, i32 47
  %91 = load ptr, ptr %90, align 8, !tbaa !200
  %92 = call i64 @gtk_toggle_button_get_type() #12
  %93 = call ptr @g_type_check_instance_cast(ptr noundef %91, i64 noundef %92)
  %94 = load ptr, ptr %3, align 8, !tbaa !31
  %95 = getelementptr inbounds nuw %struct.dt_iop_gui_blend_data_t, ptr %94, i32 0, i32 50
  %96 = load i32, ptr %95, align 8, !tbaa !199
  %97 = icmp ne i32 %96, 0
  %98 = zext i1 %97 to i32
  call void @gtk_toggle_button_set_active(ptr noundef %93, i32 noundef %98)
  %99 = load ptr, ptr %3, align 8, !tbaa !31
  %100 = getelementptr inbounds nuw %struct.dt_iop_gui_blend_data_t, ptr %99, i32 0, i32 48
  %101 = load ptr, ptr %100, align 8, !tbaa !201
  %102 = call i64 @gtk_toggle_button_get_type() #12
  %103 = call ptr @g_type_check_instance_cast(ptr noundef %101, i64 noundef %102)
  %104 = load ptr, ptr %4, align 8, !tbaa !78
  %105 = getelementptr inbounds nuw %struct.dt_develop_blend_params_t, ptr %104, i32 0, i32 5
  %106 = load i32, ptr %105, align 4, !tbaa !131
  %107 = and i32 %106, 4
  call void @gtk_toggle_button_set_active(ptr noundef %103, i32 noundef %107)
  br label %108

108:                                              ; preds = %88, %80
  call void @llvm.lifetime.start.p0(i64 4, ptr %9) #11
  store i32 0, ptr %9, align 4, !tbaa !80
  br label %109

109:                                              ; preds = %181, %108
  %110 = load i32, ptr %9, align 4, !tbaa !80
  %111 = icmp slt i32 %110, 5
  br i1 %111, label %113, label %112

112:                                              ; preds = %109
  store i32 2, ptr %5, align 4
  call void @llvm.lifetime.end.p0(i64 4, ptr %9) #11
  br label %184

113:                                              ; preds = %109
  %114 = load ptr, ptr %2, align 8, !tbaa !6
  %115 = getelementptr inbounds nuw %struct.dt_iop_module_t, ptr %114, i32 0, i32 77
  %116 = load ptr, ptr %115, align 8, !tbaa !92
  %117 = getelementptr inbounds nuw %struct.dt_develop_t, ptr %116, i32 0, i32 38
  %118 = load ptr, ptr %117, align 8, !tbaa !202
  %119 = icmp ne ptr %118, null
  br i1 %119, label %120, label %171

120:                                              ; preds = %113
  %121 = load ptr, ptr %2, align 8, !tbaa !6
  %122 = getelementptr inbounds nuw %struct.dt_iop_module_t, ptr %121, i32 0, i32 77
  %123 = load ptr, ptr %122, align 8, !tbaa !92
  %124 = getelementptr inbounds nuw %struct.dt_develop_t, ptr %123, i32 0, i32 37
  %125 = load ptr, ptr %124, align 16, !tbaa !203
  %126 = icmp ne ptr %125, null
  br i1 %126, label %127, label %171

127:                                              ; preds = %120
  %128 = load ptr, ptr %2, align 8, !tbaa !6
  %129 = getelementptr inbounds nuw %struct.dt_iop_module_t, ptr %128, i32 0, i32 77
  %130 = load ptr, ptr %129, align 8, !tbaa !92
  %131 = getelementptr inbounds nuw %struct.dt_develop_t, ptr %130, i32 0, i32 38
  %132 = load ptr, ptr %131, align 8, !tbaa !202
  %133 = getelementptr inbounds nuw %struct.dt_masks_form_gui_t, ptr %132, i32 0, i32 39
  %134 = load i32, ptr %133, align 8, !tbaa !204
  %135 = icmp ne i32 %134, 0
  br i1 %135, label %136, label %171

136:                                              ; preds = %127
  %137 = load ptr, ptr %2, align 8, !tbaa !6
  %138 = getelementptr inbounds nuw %struct.dt_iop_module_t, ptr %137, i32 0, i32 77
  %139 = load ptr, ptr %138, align 8, !tbaa !92
  %140 = getelementptr inbounds nuw %struct.dt_develop_t, ptr %139, i32 0, i32 38
  %141 = load ptr, ptr %140, align 8, !tbaa !202
  %142 = getelementptr inbounds nuw %struct.dt_masks_form_gui_t, ptr %141, i32 0, i32 42
  %143 = load ptr, ptr %142, align 8, !tbaa !207
  %144 = load ptr, ptr %2, align 8, !tbaa !6
  %145 = icmp eq ptr %143, %144
  br i1 %145, label %146, label %171

146:                                              ; preds = %136
  %147 = load ptr, ptr %2, align 8, !tbaa !6
  %148 = getelementptr inbounds nuw %struct.dt_iop_module_t, ptr %147, i32 0, i32 77
  %149 = load ptr, ptr %148, align 8, !tbaa !92
  %150 = getelementptr inbounds nuw %struct.dt_develop_t, ptr %149, i32 0, i32 37
  %151 = load ptr, ptr %150, align 16, !tbaa !203
  %152 = getelementptr inbounds nuw %struct.dt_masks_form_t, ptr %151, i32 0, i32 1
  %153 = load i32, ptr %152, align 8, !tbaa !195
  %154 = load ptr, ptr %3, align 8, !tbaa !31
  %155 = getelementptr inbounds nuw %struct.dt_iop_gui_blend_data_t, ptr %154, i32 0, i32 46
  %156 = load i32, ptr %9, align 4, !tbaa !80
  %157 = sext i32 %156 to i64
  %158 = getelementptr inbounds [5 x i32], ptr %155, i64 0, i64 %157
  %159 = load i32, ptr %158, align 4, !tbaa !80
  %160 = and i32 %153, %159
  %161 = icmp ne i32 %160, 0
  br i1 %161, label %162, label %171

162:                                              ; preds = %146
  %163 = load ptr, ptr %3, align 8, !tbaa !31
  %164 = getelementptr inbounds nuw %struct.dt_iop_gui_blend_data_t, ptr %163, i32 0, i32 45
  %165 = load i32, ptr %9, align 4, !tbaa !80
  %166 = sext i32 %165 to i64
  %167 = getelementptr inbounds [5 x ptr], ptr %164, i64 0, i64 %166
  %168 = load ptr, ptr %167, align 8, !tbaa !11
  %169 = call i64 @gtk_toggle_button_get_type() #12
  %170 = call ptr @g_type_check_instance_cast(ptr noundef %168, i64 noundef %169)
  call void @gtk_toggle_button_set_active(ptr noundef %170, i32 noundef 1)
  br label %180

171:                                              ; preds = %146, %136, %127, %120, %113
  %172 = load ptr, ptr %3, align 8, !tbaa !31
  %173 = getelementptr inbounds nuw %struct.dt_iop_gui_blend_data_t, ptr %172, i32 0, i32 45
  %174 = load i32, ptr %9, align 4, !tbaa !80
  %175 = sext i32 %174 to i64
  %176 = getelementptr inbounds [5 x ptr], ptr %173, i64 0, i64 %175
  %177 = load ptr, ptr %176, align 8, !tbaa !11
  %178 = call i64 @gtk_toggle_button_get_type() #12
  %179 = call ptr @g_type_check_instance_cast(ptr noundef %177, i64 noundef %178)
  call void @gtk_toggle_button_set_active(ptr noundef %179, i32 noundef 0)
  br label %180

180:                                              ; preds = %171, %162
  br label %181

181:                                              ; preds = %180
  %182 = load i32, ptr %9, align 4, !tbaa !80
  %183 = add nsw i32 %182, 1
  store i32 %183, ptr %9, align 4, !tbaa !80
  br label %109

184:                                              ; preds = %112
  %185 = load ptr, ptr getelementptr inbounds nuw (%struct.darktable_t, ptr @darktable, i32 0, i32 14), align 8, !tbaa !39
  %186 = getelementptr inbounds nuw %struct.dt_gui_gtk_t, ptr %185, i32 0, i32 5
  %187 = load i32, ptr %186, align 8, !tbaa !72
  %188 = add nsw i32 %187, -1
  store i32 %188, ptr %186, align 8, !tbaa !72
  call void @llvm.lifetime.end.p0(i64 8, ptr %6) #11
  store i32 0, ptr %5, align 4
  br label %189

189:                                              ; preds = %184, %28
  call void @llvm.lifetime.end.p0(i64 8, ptr %4) #11
  call void @llvm.lifetime.end.p0(i64 8, ptr %3) #11
  %190 = load i32, ptr %5, align 4
  switch i32 %190, label %192 [
    i32 0, label %191
    i32 1, label %191
  ]

191:                                              ; preds = %189, %189
  ret void

192:                                              ; preds = %189
  unreachable
}