; Function Attrs: nounwind uwtable
define void @dt_iop_gui_update_masks(ptr noundef %0) local_unnamed_addr #0 {
  %2 = alloca [512 x i8], align 16
  %3 = getelementptr inbounds nuw i8, ptr %0, i64 776
  %4 = load ptr, ptr %3, align 8, !tbaa !6
  %5 = getelementptr inbounds nuw i8, ptr %0, i64 760
  %6 = load ptr, ptr %5, align 8, !tbaa !71
  %.not = icmp eq ptr %4, null
  br i1 %.not, label %93, label %7

7:                                                ; preds = %1
  %8 = getelementptr inbounds nuw i8, ptr %4, i64 12
  %9 = load i32, ptr %8, align 4, !tbaa !162
  %.not40 = icmp eq i32 %9, 0
  br i1 %.not40, label %93, label %10

10:                                               ; preds = %7
  %11 = getelementptr inbounds nuw i8, ptr %4, i64 16
  %12 = load i32, ptr %11, align 8, !tbaa !163
  %.not41 = icmp eq i32 %12, 0
  br i1 %.not41, label %93, label %13

13:                                               ; preds = %10
  %14 = load ptr, ptr getelementptr inbounds nuw (i8, ptr @darktable, i64 104), align 8, !tbaa !33
  %15 = getelementptr inbounds nuw i8, ptr %14, i64 96
  %16 = load i32, ptr %15, align 8, !tbaa !66
  %17 = add nsw i32 %16, 1
  store i32 %17, ptr %15, align 8, !tbaa !66
  %18 = load ptr, ptr getelementptr inbounds nuw (i8, ptr @darktable, i64 64), align 8, !tbaa !119
  %19 = getelementptr inbounds nuw i8, ptr %6, i64 24
  %20 = load i32, ptr %19, align 4, !tbaa !164
  %21 = tail call ptr @dt_masks_get_from_id(ptr noundef %18, i32 noundef %20) #18
  %22 = getelementptr inbounds nuw i8, ptr %4, i64 504
  %23 = load ptr, ptr %22, align 8, !tbaa !165
  tail call void @dt_bauhaus_combobox_clear(ptr noundef %23) #18
  %.not42 = icmp eq ptr %21, null
  br i1 %.not42, label %36, label %24

24:                                               ; preds = %13
  %25 = getelementptr inbounds nuw i8, ptr %21, i64 8
  %26 = load i32, ptr %25, align 8, !tbaa !166
  %27 = and i32 %26, 4
  %.not43 = icmp eq i32 %27, 0
  br i1 %.not43, label %36, label %28

28:                                               ; preds = %24
  %29 = load ptr, ptr %21, align 8, !tbaa !169
  %.not44 = icmp eq ptr %29, null
  br i1 %.not44, label %36, label %30

30:                                               ; preds = %28
  call void @llvm.lifetime.start.p0(i64 512, ptr nonnull %2) #18
  %31 = tail call i32 @g_list_length(ptr noundef nonnull %29) #18
  %32 = zext i32 %31 to i64
  %33 = tail call ptr @dcngettext(ptr noundef null, ptr noundef nonnull @.str.135, ptr noundef nonnull @.str.136, i64 noundef %32, i32 noundef 5) #18
  %34 = call i32 (ptr, i64, ptr, ...) @snprintf(ptr noundef nonnull dereferenceable(1) %2, i64 noundef 512, ptr noundef %33, i32 noundef %31) #18
  %35 = load ptr, ptr %22, align 8, !tbaa !165
  call void @dt_bauhaus_combobox_add(ptr noundef %35, ptr noundef nonnull %2) #18
  call void @llvm.lifetime.end.p0(i64 512, ptr nonnull %2) #18
  br label %40

36:                                               ; preds = %28, %24, %13
  %37 = load ptr, ptr %22, align 8, !tbaa !165
  %38 = tail call ptr @dcgettext(ptr noundef null, ptr noundef nonnull @.str.137, i32 noundef 5) #18
  tail call void @dt_bauhaus_combobox_add(ptr noundef %37, ptr noundef %38) #18
  %39 = getelementptr inbounds nuw i8, ptr %4, i64 600
  store i32 0, ptr %39, align 8, !tbaa !170
  tail call void @dt_masks_set_edit_mode(ptr noundef nonnull %0, i32 noundef 0) #18
  br label %40

40:                                               ; preds = %36, %30
  %41 = load ptr, ptr %22, align 8, !tbaa !165
  call void @dt_bauhaus_combobox_set(ptr noundef %41, i32 noundef 0) #18
  %42 = load i32, ptr %8, align 4, !tbaa !162
  %.not45 = icmp eq i32 %42, 0
  br i1 %.not45, label %58, label %43

43:                                               ; preds = %40
  %44 = getelementptr inbounds nuw i8, ptr %4, i64 576
  %45 = load ptr, ptr %44, align 8, !tbaa !171
  %46 = tail call i64 @gtk_toggle_button_get_type() #19
  %47 = call ptr @g_type_check_instance_cast(ptr noundef %45, i64 noundef %46) #18
  %48 = getelementptr inbounds nuw i8, ptr %4, i64 600
  %49 = load i32, ptr %48, align 8, !tbaa !170
  %50 = icmp ne i32 %49, 0
  %51 = zext i1 %50 to i32
  call void @gtk_toggle_button_set_active(ptr noundef %47, i32 noundef %51) #18
  %52 = getelementptr inbounds nuw i8, ptr %4, i64 584
  %53 = load ptr, ptr %52, align 8, !tbaa !172
  %54 = call ptr @g_type_check_instance_cast(ptr noundef %53, i64 noundef %46) #18
  %55 = getelementptr inbounds nuw i8, ptr %6, i64 20
  %56 = load i32, ptr %55, align 4, !tbaa !118
  %57 = and i32 %56, 4
  call void @gtk_toggle_button_set_active(ptr noundef %54, i32 noundef %57) #18
  br label %58

58:                                               ; preds = %43, %40
  %59 = getelementptr inbounds nuw i8, ptr %0, i64 664
  %60 = getelementptr inbounds nuw i8, ptr %4, i64 552
  %61 = getelementptr inbounds nuw i8, ptr %4, i64 512
  %62 = tail call i64 @gtk_toggle_button_get_type() #19
  br label %68

63:                                               ; preds = %89
  %64 = load ptr, ptr getelementptr inbounds nuw (i8, ptr @darktable, i64 104), align 8, !tbaa !33
  %65 = getelementptr inbounds nuw i8, ptr %64, i64 96
  %66 = load i32, ptr %65, align 8, !tbaa !66
  %67 = add nsw i32 %66, -1
  store i32 %67, ptr %65, align 8, !tbaa !66
  br label %93

68:                                               ; preds = %58, %89
  %indvars.iv = phi i64 [ 0, %58 ], [ %indvars.iv.next, %89 ]
  %69 = load ptr, ptr %59, align 8, !tbaa !80
  %70 = getelementptr inbounds nuw i8, ptr %69, i64 2136
  %71 = load ptr, ptr %70, align 8, !tbaa !173
  %.not46 = icmp eq ptr %71, null
  br i1 %.not46, label %88, label %72

72:                                               ; preds = %68
  %73 = getelementptr inbounds nuw i8, ptr %69, i64 2128
  %74 = load ptr, ptr %73, align 16, !tbaa !174
  %.not47 = icmp eq ptr %74, null
  br i1 %.not47, label %88, label %75

75:                                               ; preds = %72
  %76 = getelementptr inbounds nuw i8, ptr %71, i64 168
  %77 = load i32, ptr %76, align 8, !tbaa !175
  %.not48 = icmp eq i32 %77, 0
  br i1 %.not48, label %88, label %78

78:                                               ; preds = %75
  %79 = getelementptr inbounds nuw i8, ptr %71, i64 184
  %80 = load ptr, ptr %79, align 8, !tbaa !178
  %81 = icmp eq ptr %80, %0
  br i1 %81, label %82, label %88

82:                                               ; preds = %78
  %83 = getelementptr inbounds nuw i8, ptr %74, i64 8
  %84 = load i32, ptr %83, align 8, !tbaa !166
  %85 = getelementptr inbounds nuw [5 x i32], ptr %60, i64 0, i64 %indvars.iv
  %86 = load i32, ptr %85, align 4, !tbaa !77
  %87 = and i32 %86, %84
  %.not49 = icmp eq i32 %87, 0
  br i1 %.not49, label %88, label %89

88:                                               ; preds = %82, %78, %75, %72, %68
  br label %89

89:                                               ; preds = %82, %88
  %.sink52 = phi i32 [ 0, %88 ], [ 1, %82 ]
  %90 = getelementptr inbounds nuw [5 x ptr], ptr %61, i64 0, i64 %indvars.iv
  %91 = load ptr, ptr %90, align 8, !tbaa !179
  %92 = call ptr @g_type_check_instance_cast(ptr noundef %91, i64 noundef %62) #18
  call void @gtk_toggle_button_set_active(ptr noundef %92, i32 noundef %.sink52) #18
  %indvars.iv.next = add nuw nsw i64 %indvars.iv, 1
  %exitcond.not = icmp eq i64 %indvars.iv.next, 5
  br i1 %exitcond.not, label %63, label %68

93:                                               ; preds = %1, %7, %10, %63
  ret void
}